; Function Attrs: nounwind uwtable
define internal void @phpdbg_class_breaks_dtor(ptr nocapture noundef readonly %0) #1 {
  %2 = load ptr, ptr %0, align 8
  %3 = getelementptr inbounds i8, ptr %2, i64 24
  %4 = load ptr, ptr %3, align 8
  tail call void @_efree(ptr noundef %4) #14
  %5 = getelementptr inbounds i8, ptr %2, i64 40
  %6 = load ptr, ptr %5, align 8
  tail call void @_efree(ptr noundef %6) #14
  tail call void @_efree(ptr noundef %2) #14
  ret void
}